; Function Attrs: mustprogress uwtable
define void @_ZN5faiss15IndexBinaryHNSWC2Ev(ptr noundef nonnull align 8 dereferenceable(5200) %0) unnamed_addr #1 align 2 personality ptr @__gxx_personality_v0 {
  tail call void @_ZN5faiss11IndexBinaryC2ElNS_10MetricTypeE(ptr noundef nonnull align 8 dereferenceable(32) %0, i64 noundef 0, i32 noundef 1)
  store ptr getelementptr inbounds ({ [16 x ptr] }, ptr @_ZTVN5faiss15IndexBinaryHNSWE, i64 0, i32 0, i64 2), ptr %0, align 8
  %2 = getelementptr inbounds i8, ptr %0, i64 32
  invoke void @_ZN5faiss4HNSWC1Ei(ptr noundef nonnull align 8 dereferenceable(5149) %2, i32 noundef 32)
          to label %3 unwind label %5

3:                                                ; preds = %1
  %4 = getelementptr inbounds i8, ptr %0, i64 25
  store i8 1, ptr %4, align 1
  ret void

5:                                                ; preds = %1
  %6 = landingpad { ptr, i32 }
          cleanup
  tail call void @_ZN5faiss11IndexBinaryD2Ev(ptr noundef nonnull align 8 dereferenceable(32) %0) #9
  resume { ptr, i32 } %6
}